target datalayout = "e-m:e-p270:32:32-p271:32:32-p272:64:64-i64:64-i128:128-f80:128-n8:16:32:64-S128"
target triple = "x86_64-pc-linux-gnu"

%struct.AVFilterContext = type { ptr, ptr, ptr, ptr, ptr, i32, ptr, ptr, i32, ptr, ptr, i32, i32, ptr, ptr, ptr, ptr, i32, ptr, i32, i32 }
%struct.LimitDiffContext = type { ptr, float, float, i32, i32, i32, i32, [4 x i32], [4 x i32], [4 x i32], i32, i32, %struct.FFFrameSync, ptr }
%struct.FFFrameSync = type { ptr, ptr, i32, %struct.AVRational, i64, ptr, ptr, i32, i32, i8, i8, ptr, i32, i32, i32, i32 }
%struct.AVRational = type { i32, i32 }
%struct.AVChannelLayout = type { i32, i32, %union.anon.1, ptr }
%union.anon.1 = type { i64 }
%struct.ThreadData = type { ptr, ptr, ptr, ptr }
%struct.AVFrame = type { [8 x ptr], [8 x i32], ptr, i32, i32, i32, i32, i32, %struct.AVRational, i64, i64, %struct.AVRational, i32, ptr, i32, i32, [8 x ptr], ptr, i32, ptr, i32, i32, i32, i32, i32, i32, i32, i64, ptr, i32, ptr, ptr, i64, i64, i64, i64, ptr, %struct.AVChannelLayout, i64 }

; Function Attrs: nounwind uwtable
define internal i32 @limitdiff_slice(ptr noundef %0, ptr noundef %1, i32 noundef %2, i32 noundef %3) #2 {
  %5 = alloca ptr, align 8
  %6 = alloca ptr, align 8
  %7 = alloca i32, align 4
  %8 = alloca i32, align 4
  %9 = alloca ptr, align 8
  %10 = alloca i32, align 4
  %11 = alloca ptr, align 8
  %12 = alloca i32, align 4
  %13 = alloca i32, align 4
  %14 = alloca i64, align 8
  %15 = alloca i64, align 8
  %16 = alloca i64, align 8
  %17 = alloca i64, align 8
  %18 = alloca i32, align 4
  %19 = alloca i32, align 4
  %20 = alloca i32, align 4
  %21 = alloca i32, align 4
  %22 = alloca i32, align 4
  %23 = alloca i32, align 4
  %24 = alloca ptr, align 8
  %25 = alloca ptr, align 8
  %26 = alloca ptr, align 8
  %27 = alloca ptr, align 8
  %28 = alloca i32, align 4
  store ptr %0, ptr %5, align 8, !tbaa !4
  store ptr %1, ptr %6, align 8, !tbaa !78
  store i32 %2, ptr %7, align 4, !tbaa !24
  store i32 %3, ptr %8, align 4, !tbaa !24
  call void @llvm.lifetime.start.p0(i64 8, ptr %9) #10
  %29 = load ptr, ptr %5, align 8, !tbaa !4
  %30 = getelementptr inbounds nuw %struct.AVFilterContext, ptr %29, i32 0, i32 9
  %31 = load ptr, ptr %30, align 8, !tbaa !9
  store ptr %31, ptr %9, align 8, !tbaa !22
  call void @llvm.lifetime.start.p0(i64 4, ptr %10) #10
  %32 = load ptr, ptr %9, align 8, !tbaa !22
  %33 = getelementptr inbounds nuw %struct.LimitDiffContext, ptr %32, i32 0, i32 11
  %34 = load i32, ptr %33, align 4, !tbaa !79
  store i32 %34, ptr %10, align 4, !tbaa !24
  call void @llvm.lifetime.start.p0(i64 8, ptr %11) #10
  %35 = load ptr, ptr %6, align 8, !tbaa !78
  store ptr %35, ptr %11, align 8, !tbaa !80
  call void @llvm.lifetime.start.p0(i64 4, ptr %12) #10
  store i32 0, ptr %12, align 4, !tbaa !24
  br label %36

36:                                               ; preds = %222, %4
  %37 = load i32, ptr %12, align 4, !tbaa !24
  %38 = load ptr, ptr %9, align 8, !tbaa !22
  %39 = getelementptr inbounds nuw %struct.LimitDiffContext, ptr %38, i32 0, i32 10
  %40 = load i32, ptr %39, align 8, !tbaa !82
  %41 = icmp slt i32 %37, %40
  br i1 %41, label %43, label %42

42:                                               ; preds = %36
  store i32 2, ptr %13, align 4
  call void @llvm.lifetime.end.p0(i64 4, ptr %12) #10
  br label %225

43:                                               ; preds = %36
  call void @llvm.lifetime.start.p0(i64 8, ptr %14) #10
  %44 = load ptr, ptr %11, align 8, !tbaa !80
  %45 = getelementptr inbounds nuw %struct.ThreadData, ptr %44, i32 0, i32 0
  %46 = load ptr, ptr %45, align 8, !tbaa !67
  %47 = getelementptr inbounds nuw %struct.AVFrame, ptr %46, i32 0, i32 1
  %48 = load i32, ptr %12, align 4, !tbaa !24
  %49 = sext i32 %48 to i64
  %50 = getelementptr inbounds [8 x i32], ptr %47, i64 0, i64 %49
  %51 = load i32, ptr %50, align 4, !tbaa !24
  %52 = sext i32 %51 to i64
  store i64 %52, ptr %14, align 8, !tbaa !83
  call void @llvm.lifetime.start.p0(i64 8, ptr %15) #10
  %53 = load ptr, ptr %11, align 8, !tbaa !80
  %54 = getelementptr inbounds nuw %struct.ThreadData, ptr %53, i32 0, i32 1
  %55 = load ptr, ptr %54, align 8, !tbaa !69
  %56 = getelementptr inbounds nuw %struct.AVFrame, ptr %55, i32 0, i32 1
  %57 = load i32, ptr %12, align 4, !tbaa !24
  %58 = sext i32 %57 to i64
  %59 = getelementptr inbounds [8 x i32], ptr %56, i64 0, i64 %58
  %60 = load i32, ptr %59, align 4, !tbaa !24
  %61 = sext i32 %60 to i64
  store i64 %61, ptr %15, align 8, !tbaa !83
  call void @llvm.lifetime.start.p0(i64 8, ptr %16) #10
  %62 = load ptr, ptr %11, align 8, !tbaa !80
  %63 = getelementptr inbounds nuw %struct.ThreadData, ptr %62, i32 0, i32 2
  %64 = load ptr, ptr %63, align 8, !tbaa !70
  %65 = getelementptr inbounds nuw %struct.AVFrame, ptr %64, i32 0, i32 1
  %66 = load i32, ptr %12, align 4, !tbaa !24
  %67 = sext i32 %66 to i64
  %68 = getelementptr inbounds [8 x i32], ptr %65, i64 0, i64 %67
  %69 = load i32, ptr %68, align 4, !tbaa !24
  %70 = sext i32 %69 to i64
  store i64 %70, ptr %16, align 8, !tbaa !83
  call void @llvm.lifetime.start.p0(i64 8, ptr %17) #10
  %71 = load ptr, ptr %11, align 8, !tbaa !80
  %72 = getelementptr inbounds nuw %struct.ThreadData, ptr %71, i32 0, i32 3
  %73 = load ptr, ptr %72, align 8, !tbaa !71
  %74 = getelementptr inbounds nuw %struct.AVFrame, ptr %73, i32 0, i32 1
  %75 = load i32, ptr %12, align 4, !tbaa !24
  %76 = sext i32 %75 to i64
  %77 = getelementptr inbounds [8 x i32], ptr %74, i64 0, i64 %76
  %78 = load i32, ptr %77, align 4, !tbaa !24
  %79 = sext i32 %78 to i64
  store i64 %79, ptr %17, align 8, !tbaa !83
  call void @llvm.lifetime.start.p0(i64 4, ptr %18) #10
  %80 = load ptr, ptr %9, align 8, !tbaa !22
  %81 = getelementptr inbounds nuw %struct.LimitDiffContext, ptr %80, i32 0, i32 5
  %82 = load i32, ptr %81, align 8, !tbaa !84
  store i32 %82, ptr %18, align 4, !tbaa !24
  call void @llvm.lifetime.start.p0(i64 4, ptr %19) #10
  %83 = load ptr, ptr %9, align 8, !tbaa !22
  %84 = getelementptr inbounds nuw %struct.LimitDiffContext, ptr %83, i32 0, i32 6
  %85 = load i32, ptr %84, align 4, !tbaa !85
  store i32 %85, ptr %19, align 4, !tbaa !24
  call void @llvm.lifetime.start.p0(i64 4, ptr %20) #10
  %86 = load ptr, ptr %9, align 8, !tbaa !22
  %87 = getelementptr inbounds nuw %struct.LimitDiffContext, ptr %86, i32 0, i32 8
  %88 = load i32, ptr %12, align 4, !tbaa !24
  %89 = sext i32 %88 to i64
  %90 = getelementptr inbounds [4 x i32], ptr %87, i64 0, i64 %89
  %91 = load i32, ptr %90, align 4, !tbaa !24
  store i32 %91, ptr %20, align 4, !tbaa !24
  call void @llvm.lifetime.start.p0(i64 4, ptr %21) #10
  %92 = load ptr, ptr %9, align 8, !tbaa !22
  %93 = getelementptr inbounds nuw %struct.LimitDiffContext, ptr %92, i32 0, i32 9
  %94 = load i32, ptr %12, align 4, !tbaa !24
  %95 = sext i32 %94 to i64
  %96 = getelementptr inbounds [4 x i32], ptr %93, i64 0, i64 %95
  %97 = load i32, ptr %96, align 4, !tbaa !24
  store i32 %97, ptr %21, align 4, !tbaa !24
  call void @llvm.lifetime.start.p0(i64 4, ptr %22) #10
  %98 = load i32, ptr %21, align 4, !tbaa !24
  %99 = load i32, ptr %7, align 4, !tbaa !24
  %100 = mul nsw i32 %98, %99
  %101 = load i32, ptr %8, align 4, !tbaa !24
  %102 = sdiv i32 %100, %101
  store i32 %102, ptr %22, align 4, !tbaa !24
  call void @llvm.lifetime.start.p0(i64 4, ptr %23) #10
  %103 = load i32, ptr %21, align 4, !tbaa !24
  %104 = load i32, ptr %7, align 4, !tbaa !24
  %105 = add nsw i32 %104, 1
  %106 = mul nsw i32 %103, %105
  %107 = load i32, ptr %8, align 4, !tbaa !24
  %108 = sdiv i32 %106, %107
  store i32 %108, ptr %23, align 4, !tbaa !24
  call void @llvm.lifetime.start.p0(i64 8, ptr %24) #10
  %109 = load ptr, ptr %11, align 8, !tbaa !80
  %110 = getelementptr inbounds nuw %struct.ThreadData, ptr %109, i32 0, i32 0
  %111 = load ptr, ptr %110, align 8, !tbaa !67
  %112 = getelementptr inbounds nuw %struct.AVFrame, ptr %111, i32 0, i32 0
  %113 = load i32, ptr %12, align 4, !tbaa !24
  %114 = sext i32 %113 to i64
  %115 = getelementptr inbounds [8 x ptr], ptr %112, i64 0, i64 %114
  %116 = load ptr, ptr %115, align 8, !tbaa !86
  %117 = load i32, ptr %22, align 4, !tbaa !24
  %118 = sext i32 %117 to i64
  %119 = load i64, ptr %14, align 8, !tbaa !83
  %120 = mul nsw i64 %118, %119
  %121 = getelementptr inbounds i8, ptr %116, i64 %120
  store ptr %121, ptr %24, align 8, !tbaa !86
  call void @llvm.lifetime.start.p0(i64 8, ptr %25) #10
  %122 = load ptr, ptr %11, align 8, !tbaa !80
  %123 = getelementptr inbounds nuw %struct.ThreadData, ptr %122, i32 0, i32 1
  %124 = load ptr, ptr %123, align 8, !tbaa !69
  %125 = getelementptr inbounds nuw %struct.AVFrame, ptr %124, i32 0, i32 0
  %126 = load i32, ptr %12, align 4, !tbaa !24
  %127 = sext i32 %126 to i64
  %128 = getelementptr inbounds [8 x ptr], ptr %125, i64 0, i64 %127
  %129 = load ptr, ptr %128, align 8, !tbaa !86
  %130 = load i32, ptr %22, align 4, !tbaa !24
  %131 = sext i32 %130 to i64
  %132 = load i64, ptr %15, align 8, !tbaa !83
  %133 = mul nsw i64 %131, %132
  %134 = getelementptr inbounds i8, ptr %129, i64 %133
  store ptr %134, ptr %25, align 8, !tbaa !86
  call void @llvm.lifetime.start.p0(i64 8, ptr %26) #10
  %135 = load ptr, ptr %11, align 8, !tbaa !80
  %136 = getelementptr inbounds nuw %struct.ThreadData, ptr %135, i32 0, i32 2
  %137 = load ptr, ptr %136, align 8, !tbaa !70
  %138 = getelementptr inbounds nuw %struct.AVFrame, ptr %137, i32 0, i32 0
  %139 = load i32, ptr %12, align 4, !tbaa !24
  %140 = sext i32 %139 to i64
  %141 = getelementptr inbounds [8 x ptr], ptr %138, i64 0, i64 %140
  %142 = load ptr, ptr %141, align 8, !tbaa !86
  %143 = load i32, ptr %22, align 4, !tbaa !24
  %144 = sext i32 %143 to i64
  %145 = load i64, ptr %16, align 8, !tbaa !83
  %146 = mul nsw i64 %144, %145
  %147 = getelementptr inbounds i8, ptr %142, i64 %146
  store ptr %147, ptr %26, align 8, !tbaa !86
  call void @llvm.lifetime.start.p0(i64 8, ptr %27) #10
  %148 = load ptr, ptr %11, align 8, !tbaa !80
  %149 = getelementptr inbounds nuw %struct.ThreadData, ptr %148, i32 0, i32 3
  %150 = load ptr, ptr %149, align 8, !tbaa !71
  %151 = getelementptr inbounds nuw %struct.AVFrame, ptr %150, i32 0, i32 0
  %152 = load i32, ptr %12, align 4, !tbaa !24
  %153 = sext i32 %152 to i64
  %154 = getelementptr inbounds [8 x ptr], ptr %151, i64 0, i64 %153
  %155 = load ptr, ptr %154, align 8, !tbaa !86
  %156 = load i32, ptr %22, align 4, !tbaa !24
  %157 = sext i32 %156 to i64
  %158 = load i64, ptr %17, align 8, !tbaa !83
  %159 = mul nsw i64 %157, %158
  %160 = getelementptr inbounds i8, ptr %155, i64 %159
  store ptr %160, ptr %27, align 8, !tbaa !86
  %161 = load i32, ptr %12, align 4, !tbaa !24
  %162 = shl i32 1, %161
  %163 = load ptr, ptr %9, align 8, !tbaa !22
  %164 = getelementptr inbounds nuw %struct.LimitDiffContext, ptr %163, i32 0, i32 4
  %165 = load i32, ptr %164, align 4, !tbaa !87
  %166 = and i32 %162, %165
  %167 = icmp ne i32 %166, 0
  br i1 %167, label %184, label %168

168:                                              ; preds = %43
  %169 = load ptr, ptr %27, align 8, !tbaa !86
  %170 = load i64, ptr %17, align 8, !tbaa !83
  %171 = trunc i64 %170 to i32
  %172 = load ptr, ptr %24, align 8, !tbaa !86
  %173 = load i64, ptr %14, align 8, !tbaa !83
  %174 = trunc i64 %173 to i32
  %175 = load ptr, ptr %9, align 8, !tbaa !22
  %176 = getelementptr inbounds nuw %struct.LimitDiffContext, ptr %175, i32 0, i32 7
  %177 = load i32, ptr %12, align 4, !tbaa !24
  %178 = sext i32 %177 to i64
  %179 = getelementptr inbounds [4 x i32], ptr %176, i64 0, i64 %178
  %180 = load i32, ptr %179, align 4, !tbaa !24
  %181 = load i32, ptr %23, align 4, !tbaa !24
  %182 = load i32, ptr %22, align 4, !tbaa !24
  %183 = sub nsw i32 %181, %182
  call void @av_image_copy_plane(ptr noundef %169, i32 noundef %171, ptr noundef %172, i32 noundef %174, i32 noundef %180, i32 noundef %183)
  store i32 4, ptr %13, align 4
  br label %219

184:                                              ; preds = %43
  call void @llvm.lifetime.start.p0(i64 4, ptr %28) #10
  %185 = load i32, ptr %22, align 4, !tbaa !24
  store i32 %185, ptr %28, align 4, !tbaa !24
  br label %186

186:                                              ; preds = %215, %184
  %187 = load i32, ptr %28, align 4, !tbaa !24
  %188 = load i32, ptr %23, align 4, !tbaa !24
  %189 = icmp slt i32 %187, %188
  br i1 %189, label %191, label %190

190:                                              ; preds = %186
  store i32 5, ptr %13, align 4
  call void @llvm.lifetime.end.p0(i64 4, ptr %28) #10
  br label %218

191:                                              ; preds = %186
  %192 = load ptr, ptr %9, align 8, !tbaa !22
  %193 = getelementptr inbounds nuw %struct.LimitDiffContext, ptr %192, i32 0, i32 13
  %194 = load ptr, ptr %193, align 8, !tbaa !88
  %195 = load ptr, ptr %24, align 8, !tbaa !86
  %196 = load ptr, ptr %27, align 8, !tbaa !86
  %197 = load ptr, ptr %25, align 8, !tbaa !86
  %198 = load ptr, ptr %26, align 8, !tbaa !86
  %199 = load i32, ptr %18, align 4, !tbaa !24
  %200 = load i32, ptr %19, align 4, !tbaa !24
  %201 = load i32, ptr %20, align 4, !tbaa !24
  %202 = load i32, ptr %10, align 4, !tbaa !24
  call void %194(ptr noundef %195, ptr noundef %196, ptr noundef %197, ptr noundef %198, i32 noundef %199, i32 noundef %200, i32 noundef %201, i32 noundef %202)
  %203 = load i64, ptr %17, align 8, !tbaa !83
  %204 = load ptr, ptr %27, align 8, !tbaa !86
  %205 = getelementptr inbounds i8, ptr %204, i64 %203
  store ptr %205, ptr %27, align 8, !tbaa !86
  %206 = load i64, ptr %14, align 8, !tbaa !83
  %207 = load ptr, ptr %24, align 8, !tbaa !86
  %208 = getelementptr inbounds i8, ptr %207, i64 %206
  store ptr %208, ptr %24, align 8, !tbaa !86
  %209 = load i64, ptr %15, align 8, !tbaa !83
  %210 = load ptr, ptr %25, align 8, !tbaa !86
  %211 = getelementptr inbounds i8, ptr %210, i64 %209
  store ptr %211, ptr %25, align 8, !tbaa !86
  %212 = load i64, ptr %16, align 8, !tbaa !83
  %213 = load ptr, ptr %26, align 8, !tbaa !86
  %214 = getelementptr inbounds i8, ptr %213, i64 %212
  store ptr %214, ptr %26, align 8, !tbaa !86
  br label %215

215:                                              ; preds = %191
  %216 = load i32, ptr %28, align 4, !tbaa !24
  %217 = add nsw i32 %216, 1
  store i32 %217, ptr %28, align 4, !tbaa !24
  br label %186, !llvm.loop !89

218:                                              ; preds = %190
  store i32 0, ptr %13, align 4
  br label %219

219:                                              ; preds = %218, %168
  call void @llvm.lifetime.end.p0(i64 8, ptr %27) #10
  call void @llvm.lifetime.end.p0(i64 8, ptr %26) #10
  call void @llvm.lifetime.end.p0(i64 8, ptr %25) #10
  call void @llvm.lifetime.end.p0(i64 8, ptr %24) #10
  call void @llvm.lifetime.end.p0(i64 4, ptr %23) #10
  call void @llvm.lifetime.end.p0(i64 4, ptr %22) #10
  call void @llvm.lifetime.end.p0(i64 4, ptr %21) #10
  call void @llvm.lifetime.end.p0(i64 4, ptr %20) #10
  call void @llvm.lifetime.end.p0(i64 4, ptr %19) #10
  call void @llvm.lifetime.end.p0(i64 4, ptr %18) #10
  call void @llvm.lifetime.end.p0(i64 8, ptr %17) #10
  call void @llvm.lifetime.end.p0(i64 8, ptr %16) #10
  call void @llvm.lifetime.end.p0(i64 8, ptr %15) #10
  call void @llvm.lifetime.end.p0(i64 8, ptr %14) #10
  %220 = load i32, ptr %13, align 4
  switch i32 %220, label %226 [
    i32 0, label %221
    i32 4, label %222
  ]

221:                                              ; preds = %219
  br label %222

222:                                              ; preds = %221, %219
  %223 = load i32, ptr %12, align 4, !tbaa !24
  %224 = add nsw i32 %223, 1
  store i32 %224, ptr %12, align 4, !tbaa !24
  br label %36, !llvm.loop !91

225:                                              ; preds = %42
  store i32 1, ptr %13, align 4
  call void @llvm.lifetime.end.p0(i64 8, ptr %11) #10
  call void @llvm.lifetime.end.p0(i64 4, ptr %10) #10
  call void @llvm.lifetime.end.p0(i64 8, ptr %9) #10
  ret i32 0

226:                                              ; preds = %219
  unreachable
}