; Function Attrs: nounwind uwtable
define internal noundef i32 @limitdiff_slice(ptr noundef readonly captures(none) %0, ptr noundef readonly captures(none) %1, i32 noundef %2, i32 noundef %3) #2 {
  %5 = getelementptr inbounds nuw i8, ptr %0, i64 72
  %6 = load ptr, ptr %5, align 8, !tbaa !4
  %7 = getelementptr inbounds nuw i8, ptr %6, i64 84
  %8 = load i32, ptr %7, align 4, !tbaa !69
  %9 = getelementptr inbounds nuw i8, ptr %6, i64 80
  %10 = load i32, ptr %9, align 8, !tbaa !70
  %11 = icmp sgt i32 %10, 0
  br i1 %11, label %.lr.ph83, label %._crit_edge

.lr.ph83:                                         ; preds = %4
  %12 = getelementptr inbounds nuw i8, ptr %1, i64 8
  %13 = getelementptr inbounds nuw i8, ptr %1, i64 16
  %14 = getelementptr inbounds nuw i8, ptr %1, i64 24
  %15 = getelementptr inbounds nuw i8, ptr %6, i64 24
  %16 = getelementptr inbounds nuw i8, ptr %6, i64 28
  %17 = getelementptr inbounds nuw i8, ptr %6, i64 48
  %18 = getelementptr inbounds nuw i8, ptr %6, i64 64
  %19 = add nsw i32 %2, 1
  %20 = getelementptr inbounds nuw i8, ptr %6, i64 20
  %21 = getelementptr inbounds nuw i8, ptr %6, i64 184
  %22 = getelementptr inbounds nuw i8, ptr %6, i64 32
  br label %23

._crit_edge:                                      ; preds = %.loopexit, %4
  ret i32 0

23:                                               ; preds = %.lr.ph83, %.loopexit
  %indvars.iv = phi i64 [ 0, %.lr.ph83 ], [ %indvars.iv.next, %.loopexit ]
  %24 = load ptr, ptr %1, align 8, !tbaa !57
  %25 = getelementptr inbounds nuw i8, ptr %24, i64 64
  %26 = getelementptr inbounds nuw [8 x i32], ptr %25, i64 0, i64 %indvars.iv
  %27 = load i32, ptr %26, align 4, !tbaa !62
  %28 = sext i32 %27 to i64
  %29 = load ptr, ptr %12, align 8, !tbaa !59
  %30 = getelementptr inbounds nuw i8, ptr %29, i64 64
  %31 = getelementptr inbounds nuw [8 x i32], ptr %30, i64 0, i64 %indvars.iv
  %32 = load i32, ptr %31, align 4, !tbaa !62
  %33 = sext i32 %32 to i64
  %34 = load ptr, ptr %13, align 8, !tbaa !60
  %35 = getelementptr inbounds nuw i8, ptr %34, i64 64
  %36 = getelementptr inbounds nuw [8 x i32], ptr %35, i64 0, i64 %indvars.iv
  %37 = load i32, ptr %36, align 4, !tbaa !62
  %38 = sext i32 %37 to i64
  %39 = load ptr, ptr %14, align 8, !tbaa !61
  %40 = getelementptr inbounds nuw i8, ptr %39, i64 64
  %41 = getelementptr inbounds nuw [8 x i32], ptr %40, i64 0, i64 %indvars.iv
  %42 = load i32, ptr %41, align 4, !tbaa !62
  %43 = sext i32 %42 to i64
  %44 = load i32, ptr %15, align 8, !tbaa !71
  %45 = load i32, ptr %16, align 4, !tbaa !72
  %46 = getelementptr inbounds nuw [4 x i32], ptr %17, i64 0, i64 %indvars.iv
  %47 = load i32, ptr %46, align 4, !tbaa !62
  %48 = getelementptr inbounds nuw [4 x i32], ptr %18, i64 0, i64 %indvars.iv
  %49 = load i32, ptr %48, align 4, !tbaa !62
  %50 = mul nsw i32 %49, %2
  %51 = sdiv i32 %50, %3
  %52 = mul nsw i32 %49, %19
  %53 = sdiv i32 %52, %3
  %54 = getelementptr inbounds nuw [8 x ptr], ptr %24, i64 0, i64 %indvars.iv
  %55 = load ptr, ptr %54, align 8, !tbaa !73
  %56 = sext i32 %51 to i64
  %57 = mul nsw i64 %56, %28
  %58 = getelementptr inbounds i8, ptr %55, i64 %57
  %59 = getelementptr inbounds nuw [8 x ptr], ptr %39, i64 0, i64 %indvars.iv
  %60 = load ptr, ptr %59, align 8, !tbaa !73
  %61 = mul nsw i64 %56, %43
  %62 = getelementptr inbounds i8, ptr %60, i64 %61
  %63 = trunc nuw nsw i64 %indvars.iv to i32
  %64 = shl nuw i32 1, %63
  %65 = load i32, ptr %20, align 4, !tbaa !74
  %66 = and i32 %65, %64
  %.not = icmp eq i32 %66, 0
  br i1 %.not, label %67, label %71

67:                                               ; preds = %23
  %68 = getelementptr inbounds nuw [4 x i32], ptr %22, i64 0, i64 %indvars.iv
  %69 = load i32, ptr %68, align 4, !tbaa !62
  %70 = sub nsw i32 %53, %51
  tail call void @av_image_copy_plane(ptr noundef %62, i32 noundef %42, ptr noundef %58, i32 noundef %27, i32 noundef %69, i32 noundef %70) #9
  br label %.loopexit

71:                                               ; preds = %23
  %72 = icmp slt i32 %51, %53
  br i1 %72, label %.lr.ph.preheader, label %.loopexit

.lr.ph.preheader:                                 ; preds = %71
  %73 = getelementptr inbounds nuw [8 x ptr], ptr %29, i64 0, i64 %indvars.iv
  %74 = load ptr, ptr %73, align 8, !tbaa !73
  %75 = mul nsw i64 %56, %33
  %76 = getelementptr inbounds i8, ptr %74, i64 %75
  %77 = getelementptr inbounds nuw [8 x ptr], ptr %34, i64 0, i64 %indvars.iv
  %78 = load ptr, ptr %77, align 8, !tbaa !73
  %79 = mul nsw i64 %56, %38
  %80 = getelementptr inbounds i8, ptr %78, i64 %79
  br label %.lr.ph

.lr.ph:                                           ; preds = %.lr.ph.preheader, %.lr.ph
  %.081 = phi i32 [ %86, %.lr.ph ], [ %51, %.lr.ph.preheader ]
  %.07280 = phi ptr [ %82, %.lr.ph ], [ %62, %.lr.ph.preheader ]
  %.07379 = phi ptr [ %85, %.lr.ph ], [ %80, %.lr.ph.preheader ]
  %.07478 = phi ptr [ %84, %.lr.ph ], [ %76, %.lr.ph.preheader ]
  %.07577 = phi ptr [ %83, %.lr.ph ], [ %58, %.lr.ph.preheader ]
  %81 = load ptr, ptr %21, align 8, !tbaa !75
  tail call void %81(ptr noundef %.07577, ptr noundef %.07280, ptr noundef %.07478, ptr noundef %.07379, i32 noundef %44, i32 noundef %45, i32 noundef %47, i32 noundef %8) #9
  %82 = getelementptr inbounds i8, ptr %.07280, i64 %43
  %83 = getelementptr inbounds i8, ptr %.07577, i64 %28
  %84 = getelementptr inbounds i8, ptr %.07478, i64 %33
  %85 = getelementptr inbounds i8, ptr %.07379, i64 %38
  %86 = add i32 %.081, 1
  %exitcond.not = icmp eq i32 %86, %53
  br i1 %exitcond.not, label %.loopexit, label %.lr.ph, !llvm.loop !76

.loopexit:                                        ; preds = %.lr.ph, %71, %67
  %indvars.iv.next = add nuw nsw i64 %indvars.iv, 1
  %87 = load i32, ptr %9, align 8, !tbaa !70
  %88 = sext i32 %87 to i64
  %89 = icmp slt i64 %indvars.iv.next, %88
  br i1 %89, label %23, label %._crit_edge, !llvm.loop !78
}